target datalayout = "e-m:e-p270:32:32-p271:32:32-p272:64:64-i64:64-i128:128-f80:128-n8:16:32:64-S128"
target triple = "x86_64-pc-linux-gnu"

%union.pthread_mutex_t = type { %struct.__pthread_mutex_s }
%struct.__pthread_mutex_s = type { i32, i32, i32, i32, i32, i16, i16, %struct.__pthread_internal_list }
%struct.__pthread_internal_list = type { ptr, ptr }
%struct.settings = type { i64, i32, i32, i32, ptr, i32, i32, i32, ptr, ptr, i32, double, i32, i32, i32, i8, i32, i32, i8, i32, i32, i32, i32, i32, i32, i8, i8, i8, i8, i8, i8, i8, i32, i32, double, double, i32, i32, i8, i32, i8, i8, ptr, i32, i32, i32, i32, double, double, i32, i8, i32, i32, i32, i32, i32, i8, i8, i8, ptr, i32, i32, i32, i32, i32, i32, i32, i32, i32, i32, double, i8, i32, i32, ptr, i32 }
%union.pthread_cond_t = type { %struct.__pthread_cond_s }
%struct.__pthread_cond_s = type { %union.__atomic_wide_counter, %union.__atomic_wide_counter, [2 x i32], [2 x i32], i32, i32, [2 x i32] }
%union.__atomic_wide_counter = type { i64 }
%struct.timeval = type { i64, i64 }
%struct.LIBEVENT_THREAD = type { i64, ptr, %struct.thread_notify, %struct.thread_notify, %union.pthread_mutex_t, %struct.iop_head_s, i32, i32, i32, %struct.thread_stats, [3 x %struct.io_queue_s], ptr, ptr, ptr, ptr, ptr, ptr, ptr, i32 }
%struct.thread_notify = type { %struct.event, i32 }
%struct.event = type { %struct.event_callback, %union.anon.0, i32, ptr, %union.anon.2, i16, i16, %struct.timeval }
%struct.event_callback = type { %struct.anon, i16, i8, i8, %union.anon, ptr }
%struct.anon = type { ptr, ptr }
%union.anon = type { ptr }
%union.anon.0 = type { %struct.anon.1 }
%struct.anon.1 = type { ptr, ptr }
%union.anon.2 = type { %struct.anon.3 }
%struct.anon.3 = type { %struct.anon.4, %struct.timeval }
%struct.anon.4 = type { ptr, ptr }
%struct.iop_head_s = type { ptr, ptr }
%struct.thread_stats = type { %union.pthread_mutex_t, i64, i64, i64, i64, i64, i64, i64, i64, i64, i64, i64, i64, i64, i64, i64, i64, i64, i64, i64, i64, i64, i64, i64, i64, i64, i64, i64, i64, i64, i64, [64 x %struct.slab_stats], [256 x i64], i64, i64, i64 }
%struct.slab_stats = type { i64, i64, i64, i64, i64, i64, i64, i64 }
%struct.io_queue_s = type { ptr, %struct.iop_head_s, ptr, i32 }

@settings = external global %struct.settings, align 8
@worker_hang_lock = internal global %union.pthread_mutex_t zeroinitializer, align 8
@init_lock = internal global %union.pthread_mutex_t zeroinitializer, align 8
@init_count = internal global i32 0, align 4
@init_cond = internal global %union.pthread_cond_t zeroinitializer, align 8

; Function Attrs: nounwind uwtable
define internal void @register_thread_initialized() #0 {
  %1 = call i32 @pthread_mutex_lock(ptr noundef @init_lock) #8
  %2 = load i32, ptr @init_count, align 4, !tbaa !4
  %3 = add nsw i32 %2, 1
  store i32 %3, ptr @init_count, align 4, !tbaa !4
  %4 = call i32 @pthread_cond_signal(ptr noundef @init_cond) #8
  %5 = call i32 @pthread_mutex_unlock(ptr noundef @init_lock) #8
  %6 = call i32 @pthread_mutex_lock(ptr noundef @worker_hang_lock) #8
  %7 = call i32 @pthread_mutex_unlock(ptr noundef @worker_hang_lock) #8
  ret void
}

; Function Attrs: nounwind uwtable
define internal ptr @worker_libevent(ptr noundef %0) #0 {
  %2 = alloca ptr, align 8
  %3 = alloca ptr, align 8
  store ptr %0, ptr %2, align 8, !tbaa !8
  call void @llvm.lifetime.start.p0(i64 8, ptr %3) #8
  %4 = load ptr, ptr %2, align 8, !tbaa !8
  store ptr %4, ptr %3, align 8, !tbaa !8
  %5 = call ptr @logger_create()
  %6 = load ptr, ptr %3, align 8, !tbaa !8
  %7 = getelementptr inbounds nuw %struct.LIBEVENT_THREAD, ptr %6, i32 0, i32 16
  store ptr %5, ptr %7, align 8, !tbaa !210
  %8 = call ptr @item_lru_bump_buf_create()
  %9 = load ptr, ptr %3, align 8, !tbaa !8
  %10 = getelementptr inbounds nuw %struct.LIBEVENT_THREAD, ptr %9, i32 0, i32 17
  store ptr %8, ptr %10, align 8, !tbaa !211
  %11 = load ptr, ptr %3, align 8, !tbaa !8
  %12 = getelementptr inbounds nuw %struct.LIBEVENT_THREAD, ptr %11, i32 0, i32 16
  %13 = load ptr, ptr %12, align 8, !tbaa !210
  %14 = icmp eq ptr %13, null
  br i1 %14, label %20, label %15

15:                                               ; preds = %1
  %16 = load ptr, ptr %3, align 8, !tbaa !8
  %17 = getelementptr inbounds nuw %struct.LIBEVENT_THREAD, ptr %16, i32 0, i32 17
  %18 = load ptr, ptr %17, align 8, !tbaa !211
  %19 = icmp eq ptr %18, null
  br i1 %19, label %20, label %21

20:                                               ; preds = %15, %1
  call void @abort() #9
  unreachable

21:                                               ; preds = %15
  %22 = load i8, ptr getelementptr inbounds nuw (%struct.settings, ptr @settings, i32 0, i32 56), align 4, !tbaa !212, !range !20, !noundef !21
  %23 = trunc i8 %22 to i1
  br i1 %23, label %24, label %25

24:                                               ; preds = %21
  br label %25

25:                                               ; preds = %24, %21
  call void @register_thread_initialized()
  br label %26

26:                                               ; preds = %33, %25
  %27 = load ptr, ptr %3, align 8, !tbaa !8
  %28 = getelementptr inbounds nuw %struct.LIBEVENT_THREAD, ptr %27, i32 0, i32 1
  %29 = load ptr, ptr %28, align 8, !tbaa !207
  %30 = call i32 @event_base_got_exit(ptr noundef %29)
  %31 = icmp ne i32 %30, 0
  %32 = xor i1 %31, true
  br i1 %32, label %33, label %39

33:                                               ; preds = %26
  %34 = load ptr, ptr %3, align 8, !tbaa !8
  %35 = getelementptr inbounds nuw %struct.LIBEVENT_THREAD, ptr %34, i32 0, i32 1
  %36 = load ptr, ptr %35, align 8, !tbaa !207
  %37 = call i32 @event_base_loop(ptr noundef %36, i32 noundef 1)
  %38 = load ptr, ptr %3, align 8, !tbaa !8
  call void @thread_io_queue_submit(ptr noundef %38)
  br label %26, !llvm.loop !213

39:                                               ; preds = %26
  call void @register_thread_initialized()
  %40 = load ptr, ptr %3, align 8, !tbaa !8
  %41 = getelementptr inbounds nuw %struct.LIBEVENT_THREAD, ptr %40, i32 0, i32 1
  %42 = load ptr, ptr %41, align 8, !tbaa !207
  call void @event_base_free(ptr noundef %42)
  call void @llvm.lifetime.end.p0(i64 8, ptr %3) #8
  ret ptr null
}