; Function Attrs: nounwind uwtable
define internal noalias noundef ptr @worker_libevent(ptr noundef initializes((6968, 6984)) %0) #0 {
  %2 = tail call ptr @logger_create() #15
  %3 = getelementptr inbounds nuw i8, ptr %0, i64 6968
  store ptr %2, ptr %3, align 8, !tbaa !196
  %4 = tail call ptr @item_lru_bump_buf_create() #15
  %5 = getelementptr inbounds nuw i8, ptr %0, i64 6976
  store ptr %4, ptr %5, align 8, !tbaa !197
  %6 = load ptr, ptr %3, align 8, !tbaa !196
  %7 = icmp eq ptr %6, null
  %8 = icmp eq ptr %4, null
  %or.cond = select i1 %7, i1 true, i1 %8
  br i1 %or.cond, label %9, label %10

9:                                                ; preds = %1
  tail call void @abort() #21
  unreachable

10:                                               ; preds = %1
  %11 = tail call i32 @pthread_mutex_lock(ptr noundef nonnull @init_lock) #15
  %12 = load i32, ptr @init_count, align 4, !tbaa !8
  %13 = add nsw i32 %12, 1
  store i32 %13, ptr @init_count, align 4, !tbaa !8
  %14 = tail call i32 @pthread_cond_signal(ptr noundef nonnull @init_cond) #15
  %15 = tail call i32 @pthread_mutex_unlock(ptr noundef nonnull @init_lock) #15
  %16 = tail call i32 @pthread_mutex_lock(ptr noundef nonnull @worker_hang_lock) #15
  %17 = tail call i32 @pthread_mutex_unlock(ptr noundef nonnull @worker_hang_lock) #15
  %18 = getelementptr inbounds nuw i8, ptr %0, i64 8
  %19 = load ptr, ptr %18, align 8, !tbaa !187
  %20 = tail call i32 @event_base_got_exit(ptr noundef %19) #15
  %.not9 = icmp eq i32 %20, 0
  br i1 %.not9, label %.lr.ph, label %._crit_edge

.lr.ph:                                           ; preds = %10, %.lr.ph
  %21 = load ptr, ptr %18, align 8, !tbaa !187
  %22 = tail call i32 @event_base_loop(ptr noundef %21, i32 noundef 1) #15
  tail call void @thread_io_queue_submit(ptr noundef nonnull %0) #15
  %23 = load ptr, ptr %18, align 8, !tbaa !187
  %24 = tail call i32 @event_base_got_exit(ptr noundef %23) #15
  %.not = icmp eq i32 %24, 0
  br i1 %.not, label %.lr.ph, label %._crit_edge, !llvm.loop !198

._crit_edge:                                      ; preds = %.lr.ph, %10
  %25 = tail call i32 @pthread_mutex_lock(ptr noundef nonnull @init_lock) #15
  %26 = load i32, ptr @init_count, align 4, !tbaa !8
  %27 = add nsw i32 %26, 1
  store i32 %27, ptr @init_count, align 4, !tbaa !8
  %28 = tail call i32 @pthread_cond_signal(ptr noundef nonnull @init_cond) #15
  %29 = tail call i32 @pthread_mutex_unlock(ptr noundef nonnull @init_lock) #15
  %30 = tail call i32 @pthread_mutex_lock(ptr noundef nonnull @worker_hang_lock) #15
  %31 = tail call i32 @pthread_mutex_unlock(ptr noundef nonnull @worker_hang_lock) #15
  %32 = load ptr, ptr %18, align 8, !tbaa !187
  tail call void @event_base_free(ptr noundef %32) #15
  ret ptr null
}